target datalayout = "e-m:e-p270:32:32-p271:32:32-p272:64:64-i64:64-i128:128-f80:128-n8:16:32:64-S128"
target triple = "x86_64-pc-linux-gnu"

%struct.FilterParams = type { i32, double, ptr, ptr, ptr }

; Function Attrs: nounwind uwtable
define internal void @blend_glow_10bit(ptr noundef %0, i64 noundef %1, ptr noundef %2, i64 noundef %3, ptr noundef %4, i64 noundef %5, i64 noundef %6, i64 noundef %7, ptr noundef %8, ptr noundef %9) #0 {
  %11 = alloca ptr, align 8
  %12 = alloca i64, align 8
  %13 = alloca ptr, align 8
  %14 = alloca i64, align 8
  %15 = alloca ptr, align 8
  %16 = alloca i64, align 8
  %17 = alloca i64, align 8
  %18 = alloca i64, align 8
  %19 = alloca ptr, align 8
  %20 = alloca ptr, align 8
  %21 = alloca ptr, align 8
  %22 = alloca ptr, align 8
  %23 = alloca ptr, align 8
  %24 = alloca float, align 4
  %25 = alloca i32, align 4
  %26 = alloca i32, align 4
  %27 = alloca i32, align 4
  store ptr %0, ptr %11, align 8, !tbaa !46
  store i64 %1, ptr %12, align 8, !tbaa !88
  store ptr %2, ptr %13, align 8, !tbaa !46
  store i64 %3, ptr %14, align 8, !tbaa !88
  store ptr %4, ptr %15, align 8, !tbaa !46
  store i64 %5, ptr %16, align 8, !tbaa !88
  store i64 %6, ptr %17, align 8, !tbaa !88
  store i64 %7, ptr %18, align 8, !tbaa !88
  store ptr %8, ptr %19, align 8, !tbaa !77
  store ptr %9, ptr %20, align 8, !tbaa !89
  call void @llvm.lifetime.start.p0(i64 8, ptr %21) #12
  %28 = load ptr, ptr %11, align 8, !tbaa !46
  store ptr %28, ptr %21, align 8, !tbaa !103
  call void @llvm.lifetime.start.p0(i64 8, ptr %22) #12
  %29 = load ptr, ptr %13, align 8, !tbaa !46
  store ptr %29, ptr %22, align 8, !tbaa !103
  call void @llvm.lifetime.start.p0(i64 8, ptr %23) #12
  %30 = load ptr, ptr %15, align 8, !tbaa !46
  store ptr %30, ptr %23, align 8, !tbaa !103
  call void @llvm.lifetime.start.p0(i64 4, ptr %24) #12
  %31 = load ptr, ptr %19, align 8, !tbaa !77
  %32 = getelementptr inbounds nuw %struct.FilterParams, ptr %31, i32 0, i32 1
  %33 = load double, ptr %32, align 8, !tbaa !82
  %34 = fptrunc nsz double %33 to float
  store float %34, ptr %24, align 4, !tbaa !99
  %35 = load i64, ptr %16, align 8, !tbaa !88
  %36 = udiv i64 %35, 2
  store i64 %36, ptr %16, align 8, !tbaa !88
  %37 = load i64, ptr %12, align 8, !tbaa !88
  %38 = udiv i64 %37, 2
  store i64 %38, ptr %12, align 8, !tbaa !88
  %39 = load i64, ptr %14, align 8, !tbaa !88
  %40 = udiv i64 %39, 2
  store i64 %40, ptr %14, align 8, !tbaa !88
  call void @llvm.lifetime.start.p0(i64 4, ptr %25) #12
  store i32 0, ptr %25, align 4, !tbaa !37
  br label %41

41:                                               ; preds = %154, %10
  %42 = load i32, ptr %25, align 4, !tbaa !37
  %43 = sext i32 %42 to i64
  %44 = load i64, ptr %18, align 8, !tbaa !88
  %45 = icmp slt i64 %43, %44
  br i1 %45, label %47, label %46

46:                                               ; preds = %41
  store i32 2, ptr %26, align 4
  call void @llvm.lifetime.end.p0(i64 4, ptr %25) #12
  br label %157

47:                                               ; preds = %41
  call void @llvm.lifetime.start.p0(i64 4, ptr %27) #12
  store i32 0, ptr %27, align 4, !tbaa !37
  br label %48

48:                                               ; preds = %141, %47
  %49 = load i32, ptr %27, align 4, !tbaa !37
  %50 = sext i32 %49 to i64
  %51 = load i64, ptr %17, align 8, !tbaa !88
  %52 = icmp slt i64 %50, %51
  br i1 %52, label %54, label %53

53:                                               ; preds = %48
  store i32 5, ptr %26, align 4
  call void @llvm.lifetime.end.p0(i64 4, ptr %27) #12
  br label %144

54:                                               ; preds = %48
  %55 = load ptr, ptr %21, align 8, !tbaa !103
  %56 = load i32, ptr %27, align 4, !tbaa !37
  %57 = sext i32 %56 to i64
  %58 = getelementptr inbounds i16, ptr %55, i64 %57
  %59 = load i16, ptr %58, align 2, !tbaa !105
  %60 = zext i16 %59 to i32
  %61 = sitofp i32 %60 to float
  %62 = load ptr, ptr %21, align 8, !tbaa !103
  %63 = load i32, ptr %27, align 4, !tbaa !37
  %64 = sext i32 %63 to i64
  %65 = getelementptr inbounds i16, ptr %62, i64 %64
  %66 = load i16, ptr %65, align 2, !tbaa !105
  %67 = zext i16 %66 to i32
  %68 = icmp eq i32 %67, 1023
  br i1 %68, label %69, label %76

69:                                               ; preds = %54
  %70 = load ptr, ptr %21, align 8, !tbaa !103
  %71 = load i32, ptr %27, align 4, !tbaa !37
  %72 = sext i32 %71 to i64
  %73 = getelementptr inbounds i16, ptr %70, i64 %72
  %74 = load i16, ptr %73, align 2, !tbaa !105
  %75 = zext i16 %74 to i32
  br label %124

76:                                               ; preds = %54
  %77 = load ptr, ptr %22, align 8, !tbaa !103
  %78 = load i32, ptr %27, align 4, !tbaa !37
  %79 = sext i32 %78 to i64
  %80 = getelementptr inbounds i16, ptr %77, i64 %79
  %81 = load i16, ptr %80, align 2, !tbaa !105
  %82 = zext i16 %81 to i32
  %83 = load ptr, ptr %22, align 8, !tbaa !103
  %84 = load i32, ptr %27, align 4, !tbaa !37
  %85 = sext i32 %84 to i64
  %86 = getelementptr inbounds i16, ptr %83, i64 %85
  %87 = load i16, ptr %86, align 2, !tbaa !105
  %88 = zext i16 %87 to i32
  %89 = mul nsw i32 %82, %88
  %90 = load ptr, ptr %21, align 8, !tbaa !103
  %91 = load i32, ptr %27, align 4, !tbaa !37
  %92 = sext i32 %91 to i64
  %93 = getelementptr inbounds i16, ptr %90, i64 %92
  %94 = load i16, ptr %93, align 2, !tbaa !105
  %95 = zext i16 %94 to i32
  %96 = sub nsw i32 1023, %95
  %97 = sdiv i32 %89, %96
  %98 = icmp sgt i32 1023, %97
  br i1 %98, label %99, label %121

99:                                               ; preds = %76
  %100 = load ptr, ptr %22, align 8, !tbaa !103
  %101 = load i32, ptr %27, align 4, !tbaa !37
  %102 = sext i32 %101 to i64
  %103 = getelementptr inbounds i16, ptr %100, i64 %102
  %104 = load i16, ptr %103, align 2, !tbaa !105
  %105 = zext i16 %104 to i32
  %106 = load ptr, ptr %22, align 8, !tbaa !103
  %107 = load i32, ptr %27, align 4, !tbaa !37
  %108 = sext i32 %107 to i64
  %109 = getelementptr inbounds i16, ptr %106, i64 %108
  %110 = load i16, ptr %109, align 2, !tbaa !105
  %111 = zext i16 %110 to i32
  %112 = mul nsw i32 %105, %111
  %113 = load ptr, ptr %21, align 8, !tbaa !103
  %114 = load i32, ptr %27, align 4, !tbaa !37
  %115 = sext i32 %114 to i64
  %116 = getelementptr inbounds i16, ptr %113, i64 %115
  %117 = load i16, ptr %116, align 2, !tbaa !105
  %118 = zext i16 %117 to i32
  %119 = sub nsw i32 1023, %118
  %120 = sdiv i32 %112, %119
  br label %122

121:                                              ; preds = %76
  br label %122

122:                                              ; preds = %121, %99
  %123 = phi i32 [ %120, %99 ], [ 1023, %121 ]
  br label %124

124:                                              ; preds = %122, %69
  %125 = phi i32 [ %75, %69 ], [ %123, %122 ]
  %126 = load ptr, ptr %21, align 8, !tbaa !103
  %127 = load i32, ptr %27, align 4, !tbaa !37
  %128 = sext i32 %127 to i64
  %129 = getelementptr inbounds i16, ptr %126, i64 %128
  %130 = load i16, ptr %129, align 2, !tbaa !105
  %131 = zext i16 %130 to i32
  %132 = sub nsw i32 %125, %131
  %133 = sitofp i32 %132 to float
  %134 = load float, ptr %24, align 4, !tbaa !99
  %135 = call nsz float @llvm.fmuladd.f32(float %133, float %134, float %61)
  %136 = fptoui float %135 to i16
  %137 = load ptr, ptr %23, align 8, !tbaa !103
  %138 = load i32, ptr %27, align 4, !tbaa !37
  %139 = sext i32 %138 to i64
  %140 = getelementptr inbounds i16, ptr %137, i64 %139
  store i16 %136, ptr %140, align 2, !tbaa !105
  br label %141

141:                                              ; preds = %124
  %142 = load i32, ptr %27, align 4, !tbaa !37
  %143 = add nsw i32 %142, 1
  store i32 %143, ptr %27, align 4, !tbaa !37
  br label %48, !llvm.loop !298

144:                                              ; preds = %53
  %145 = load i64, ptr %16, align 8, !tbaa !88
  %146 = load ptr, ptr %23, align 8, !tbaa !103
  %147 = getelementptr inbounds i16, ptr %146, i64 %145
  store ptr %147, ptr %23, align 8, !tbaa !103
  %148 = load i64, ptr %12, align 8, !tbaa !88
  %149 = load ptr, ptr %21, align 8, !tbaa !103
  %150 = getelementptr inbounds i16, ptr %149, i64 %148
  store ptr %150, ptr %21, align 8, !tbaa !103
  %151 = load i64, ptr %14, align 8, !tbaa !88
  %152 = load ptr, ptr %22, align 8, !tbaa !103
  %153 = getelementptr inbounds i16, ptr %152, i64 %151
  store ptr %153, ptr %22, align 8, !tbaa !103
  br label %154

154:                                              ; preds = %144
  %155 = load i32, ptr %25, align 4, !tbaa !37
  %156 = add nsw i32 %155, 1
  store i32 %156, ptr %25, align 4, !tbaa !37
  br label %41, !llvm.loop !299

157:                                              ; preds = %46
  call void @llvm.lifetime.end.p0(i64 4, ptr %24) #12
  call void @llvm.lifetime.end.p0(i64 8, ptr %23) #12
  call void @llvm.lifetime.end.p0(i64 8, ptr %22) #12
  call void @llvm.lifetime.end.p0(i64 8, ptr %21) #12
  ret void
}